Certificate:
    Data:
        Version: 3 (0x2)
        Serial Number: 1234567890 (0x499602d2)
        Signature Algorithm: sha256WithRSAEncryption
        Issuer: CN = ca.example.com
        Validity
            Not Before: Jun 10 17:37:02 2024 GMT
            Not After : Jun 10 17:37:02 2025 GMT
        Subject: CN = test.example.com
        Subject Public Key Info:
            Public Key Algorithm: rsaEncryption
                RSA Public-Key: (2048 bit)
                Modulus:
                    00:e8:25:15:50:8b:8a:92:1e:f5:29:c2:9c:0d:db:
                    1b:0c:70:9c:38:64:51:6e:98:38:6e:15:1d:f1:2a:
                    21:cc:7f:9c:e4:aa:57:fa:05:87:17:63:c4:5e:2b:
                    05:76:30:63:a2:6f:bb:46:97:2f:fb:41:61:07:7f:
                    81:b3:cc:31:95:eb:9e:11:24:1b:b7:ae:3c:23:14:
                    6c:53:e0:41:19:38:7f:a3:89:69:07:51:c3:ef:98:
                    a1:91:4c:c6:bc:7a:cd:9b:a8:2b:00:da:51:fe:c5:
                    34:d8:e4:90:2f:15:57:c8:c1:af:b5:58:e8:98:72:
                    29:46:ab:2e:7d:8f:66:78:74:29:2b:3c:84:5c:3c:
                    05:e6:5e:17:87:e6:d9:f3:af:0a:8e:7f:4d:21:c6:
                    32:a5:31:54:77:3a:9b:1c:3b:ad:a0:26:8d:6d:7c:
                    07:98:76:88:95:92:49:4d:79:64:29:7d:71:67:e8:
                    63:11:2d:13:38:ab:bd:94:ac:89:42:06:d4:5d:51:
                    ae:a6:74:58:7e:b8:59:79:d5:89:79:39:e7:e1:67:
                    73:68:1c:02:13:26:93:c2:45:57:9f:9f:00:29:c0:
                    3b:37:35:43:38:41:a1:92:9f:e8:dc:bc:ec:9e:3a:
                    45:de:c8:5c:65:0f:d8:a7:a3:f3:e3:b1:1a:53:7b:
                    fa:17
                Exponent: 65537 (0x10001)
        X509v3 extensions:
            X509v3 Subject Key Identifier: 
                DB:C3:B9:D5:FD:E0:48:42:6C:A7:96:9C:ED:1B:0F:96:43:CC:05:76
            X509v3 Authority Key Identifier: 
                keyid:DB:C3:B9:D5:FD:E0:48:42:6C:A7:96:9C:ED:1B:0F:96:43:CC:05:76

            X509v3 Basic Constraints: critical
                CA:TRUE
    Signature Algorithm: sha256WithRSAEncryption
         d4:41:62:be:63:6d:cf:2e:84:31:11:a3:77:ae:ee:e9:6e:f9:
         87:d3:00:27:10:e8:26:3c:2c:c1:d2:f2:b7:03:b5:ae:ee:f6:
         f6:25:62:7f:d3:38:7c:3e:29:d2:58:42:c6:d6:7b:13:b4:3a:
         ac:10:8c:f6:61:89:d5:8b:20:d6:5a:95:03:a8:36:a4:9e:86:
         6d:e2:4e:77:dd:e5:cf:9a:4a:81:7e:bc:e4:a7:84:94:94:3a:
         ba:e9:cd:f7:44:84:b9:20:fd:ba:f2:b4:18:4d:34:d4:c8:a5:
         e5:48:24:98:27:7c:94:8d:a4:8b:33:bf:a2:71:d8:e1:8b:02:
         85:92:3d:59:f5:43:51:78:6f:86:d8:b8:18:a9:61:86:b7:db:
         d3:bf:8e:74:63:06:a7:a2:20:87:a0:9b:9a:c5:18:89:9b:4c:
         fa:db:66:a3:78:0b:31:a4:90:c5:b8:a0:21:0c:3c:be:e4:2f:
         f3:da:cb:60:c4:d3:66:b0:a7:6f:5a:1b:47:45:4b:07:55:f0:
         30:36:76:c7:a8:0e:ec:ad:41:18:bf:56:b7:e3:c0:6a:9f:52:
         d7:69:aa:5d:c6:a0:74:6e:f5:db:c0:ef:a7:49:16:d0:fa:41:
         29:d2:78:5a:a4:df:1a:26:c8:98:80:4c:62:0c:ea:5f:8e:5a:
         b0:92:2c:c8:d7:53:07:fe:5f:b8:35:4d:2c:48:ad:bc:3f:97:
         7a:05:42:64:ed:41:9b:6a:66:4e:f5:10:2c:41:18:49:29:64:
         38:df:ff:fb:f2:75:7c:86:b1:2f:0a:96:f2:07:34:8e:d2:a8:
         87:f4:4b:5a:f7:98:cc:06:6e:0e:5b:b4:10:97:e9:47:45:25:
         8b:66:91:3d:48:7b:a0:70:5e:23:23:91:2f:cc:a5:4f:92:0f:
         83:ea:00:5e:40:97:96:97:9d:e9:c8:86:ab:0d:23:6c:77:e7:
         c9:f1:5b:9b:59:61:ef:02:d0:48:ac:85:4f:38:e8:db:48:b5:
         71:7e:94:22:8c:ba:bc:2c:4c:64:f2:66:4d:1c:48:42:15:b3:
         f0:9e:ae:8b:06:03:16:41:83:66:26:a6:9a:2d:fc:58:07:6e:
         32:a2:17:c1:23:86:17:aa:50:a2:47:7a:85:bc:8d:29:c3:c0:
         01:6f:c0:66:16:e2:8b:f8:d5:e3:bf:d4:98:41:46:0f:4d:86:
         c8:81:d0:69:fd:6a:50:d4:d3:c0:6e:fa:c9:b8:ba:ef:36:16:
         95:a1:44:ed:86:e2:4d:a9:f5:21:83:fe:e1:32:0a:44:c4:91:
         32:da:1a:2d:84:3e:df:74:b1:a0:92:44:16:84:51:28:00:73:
         d5:67:85:d2:0d:32:21:b1
-----BEGIN CERTIFICATE-----
MIIEBTCCAe2gAwIBAgIESZYC0jANBgkqhkiG9w0BAQsFADAZMRcwFQYDVQQDDA5j
YS5leGFtcGxlLmNvbTAeFw0yNDA2MTAxNzM3MDJaFw0yNTA2MTAxNzM3MDJaMBsx
GTAXBgNVBAMMEHRlc3QuZXhhbXBsZS5jb20wggEiMA0GCSqGSIb3DQEBAQUAA4IB
DwAwggEKAoIBAQDoJRVQi4qSHvUpwpwN2xsMcJw4ZFFumDhuFR3xKiHMf5zkqlf6
BYcXY8ReKwV2MGOib7tGly/7QWEHf4GzzDGV654RJBu3rjwjFGxT4EEZOH+jiWkH
UcPvmKGRTMa8es2bqCsA2lH+xTTY5JAvFVfIwa+1WOiYcilGqy59j2Z4dCkrPIRc
PAXmXheH5tnzrwqOf00hxjKlMVR3OpscO62gJo1tfAeYdoiVkklNeWQpfXFn6GMR
LRM4q72UrIlCBtRdUa6mdFh+uFl51Yl5OefhZ3NoHAITJpPCRVefnwApwDs3NUM4
QaGSn+jcvOyeOkXeyFxlD9ino/PjsRpTe/oXAgMBAAGjUzBRMB0GA1UdDgQWBBTb
w7nV/eBIQmynlpztGw+WQ8wFdjAfBgNVHSMEGDAWgBTbw7nV/eBIQmynlpztGw+W
Q8wFdjAPBgNVHRMBAf8EBTADAQH/MA0GCSqGSIb3DQEBCwUAA4ICAQDUQWK+Y23P
LoQxEaN3ru7pbvmH0wAnEOgmPCzB0vK3A7Wu7vb2JWJ/0zh8PinSWELG1nsTtDqs
EIz2YYnViyDWWpUDqDaknoZt4k533eXPmkqBfrzkp4SUlDq66c33RIS5IP268rQY
TTTUyKXlSCSYJ3yUjaSLM7+icdjhiwKFkj1Z9UNReG+G2LgYqWGGt9vTv450Ywan
oiCHoJuaxRiJm0z622ajeAsxpJDFuKAhDDy+5C/z2stgxNNmsKdvWhtHRUsHVfAw
NnbHqA7srUEYv1a348Bqn1LXaapdxqB0bvXbwO+nSRbQ+kEp0nhapN8aJsiYgExi
DOpfjlqwkizI11MH/l+4NU0sSK28P5d6BUJk7UGbamZO9RAsQRhJKWQ43//78nV8
hrEvCpbyBzSO0qiH9Eta95jMBm4OW7QQl+lHRSWLZpE9SHugcF4jI5EvzKVPkg+D
6gBeQJeWl53pyIarDSNsd+fJ8VubWWHvAtBIrIVPOOjbSLVxfpQijLq8LExk8mZN
HEhCFbPwnq6LBgMWQYNmJqaaLfxYB24yohfBI4YXqlCiR3qFvI0pw8ABb8BmFuKL
+NXjv9SYQUYPTYbIgdBp/WpQ1NPAbvrJuLrvNhaVoUTthuJNqfUhg/7hMgpExJEy
2hothD7fdLGgkkQWhFEoAHPVZ4XSDTIhsQ==
-----END CERTIFICATE-----
