Certificate:
    Data:
        Version: 1 (0x0)
        Serial Number:
            6a:7d:e9:eb:4b:36:b8:5f:7a:81:30:1a:bf:d6:72:b7:27:f7:e1:e9
        Signature Algorithm: NULL
        Issuer: CN = ca.example.com
        Validity
            Not Before: Jun 10 17:37:03 2024 GMT
            Not After : Jul 10 17:37:03 2024 GMT
        Subject: CN = b.example.com
        Subject Public Key Info:
            Public Key Algorithm: rsaEncryption
                RSA Public-Key: (4096 bit)
                Modulus:
                    00:b6:26:85:c2:c8:51:37:98:64:3d:2d:c5:92:99:
                    fb:a5:6e:ae:a9:b6:fc:ed:13:fe:14:bf:84:c8:8f:
                    84:12:a7:78:8c:aa:a6:ba:e7:ba:b1:28:0c:2b:32:
                    fe:05:68:19:76:fb:2e:10:bd:d7:ff:4d:d6:7e:9c:
                    8c:e9:ff:b3:d8:80:55:41:68:f1:06:c2:e6:63:14:
                    20:b7:52:58:20:45:d6:48:2a:54:d9:b7:a5:9f:08:
                    4c:4e:05:4c:07:cb:8b:8c:4c:46:e4:b7:97:4d:86:
                    57:26:66:7c:c8:8f:20:86:cf:9d:2c:4d:1a:36:26:
                    5e:37:28:4c:e1:ff:db:84:6a:30:e8:15:79:2b:14:
                    82:05:e8:46:05:90:65:a8:c0:81:67:39:ca:23:14:
                    8d:77:e9:f1:6b:7a:d3:03:5c:12:3a:a1:2d:af:55:
                    79:54:d0:f2:58:73:ad:b5:e9:e9:a6:64:de:07:0c:
                    14:a4:cc:73:c0:1c:97:30:67:5b:77:b0:9e:08:42:
                    d7:ee:5d:aa:03:eb:74:0d:07:fd:d1:ae:ae:d4:37:
                    2c:94:f8:a5:47:c8:93:03:f0:2a:b8:5c:5c:1b:0b:
                    3c:fe:6f:82:65:84:df:80:57:2c:94:60:a6:ca:af:
                    04:4b:df:f5:bc:08:6b:49:c0:77:66:c9:5f:b2:3a:
                    35:c6:d4:1c:33:60:51:fe:bd:8c:55:e7:25:05:61:
                    c7:45:de:5a:2c:1d:bd:e4:7b:dd:8c:3c:d2:23:c3:
                    46:14:79:d7:1a:b5:78:ed:6d:53:68:b0:7f:0c:b3:
                    96:df:b5:b8:97:ef:c0:49:6e:1c:d4:65:31:c4:7d:
                    ec:1d:b0:3c:c0:e4:f8:b3:95:92:c5:2e:d8:57:ee:
                    a1:4c:1e:2c:e9:a7:cd:25:4a:a4:03:4d:d9:e2:d1:
                    62:b7:5e:52:db:bb:1a:28:5f:fb:1e:37:80:15:69:
                    6e:cc:4b:37:43:82:eb:c9:75:1b:c2:4f:2e:16:80:
                    46:05:89:c6:f0:8d:fd:94:81:30:19:a5:cd:c8:03:
                    18:69:dc:63:2e:2c:32:9d:0a:a8:ae:7d:c8:e1:84:
                    8e:e6:bd:cf:22:43:ba:f6:37:e5:75:87:e0:ad:bc:
                    bb:23:88:06:e8:c2:d3:5a:13:8c:9b:06:00:23:52:
                    4c:82:5f:dc:35:75:8d:45:fc:27:12:c1:50:b9:37:
                    43:bf:52:e5:fb:b6:7f:87:45:01:68:65:63:fe:70:
                    1d:42:36:6f:5c:5f:2c:d2:06:f8:91:af:ad:4a:30:
                    72:fb:c5:09:ce:34:c6:db:32:98:30:c7:25:e0:fa:
                    68:9d:23:a9:ce:3f:06:0d:c6:96:2f:72:02:1b:0b:
                    88:68:19
                Exponent: 65537 (0x10001)
    Signature Algorithm: NULL
-----BEGIN CERTIFICATE-----
MIIEuDCCAqACFGKj8qJz97KazLaAzt1xSS4t40dJMA0GCSqGSIb3DQEBCwUAMBkx
FzAVBgNVBAMMDmNhLmV4YW1wbGUuY29tMB4XDTI0MDYxMDE3MzcwM1oXDTI0MDcx
MDE3MzcwM1owGDEWMBQGA1UEAwwNYi5leGFtcGxlLmNvbTCCAiIwDQYJKoZIhvcN
AQEBBQADggIPADCCAgoCggIBALYmhcLIUTeYZD0txZKZ+6Vurqm2/O0T/hS/hMiP
hBKneIyqprrnurEoDCsy/gVoGXb7LhC91/9N1n6cjOn/s9iAVUFo8QbC5mMUILdS
WCBF1kgqVNm3pZ8ITE4FTAfLi4xMRuS3l02GVyZmfMiPIIbPnSxNGjYmXjcoTOH/
24RqMOgVeSsUggXoRgWQZajAgWc5yiMUjXfp8Wt60wNcEjqhLa9VeVTQ8lhzrbXp
6aZk3gcMFKTMc8AclzBnW3ewnghC1+5dqgPrdA0H/dGurtQ3LJT4pUfIkwPwKrhc
XBsLPP5vgmWE34BXLJRgpsqvBEvf9bwIa0nAd2bJX7I6NcbUHDNgUf69jFXnJQVh
x0XeWiwdveR73Yw80iPDRhR51xq1eO1tU2iwfwyzlt+1uJfvwEluHNRlMcR97B2w
PMDk+LOVksUu2FfuoUweLOmnzSVKpANN2eLRYrdeUtu7Gihf+x43gBVpbsxLN0OC
68l1G8JPLhaARgWJxvCN/ZSBMBmlzcgDGGncYy4sMp0KqK59yOGEjua9zyJDuvY3
5XWH4K28uyOIBujC01oTjJsGACNSTIJf3DV1jUX8JxLBULk3Q79S5fu2f4dFAWhl
Y/5wHUI2b1xfLNIG+JGvrUowcvvFCc40xtsymDDHJeD6aJ0jqc4/Bg3Gli9yAhsL
iGgZAgMBAAEwDQYJKoZIhvcNAQELBQADggIBAKtSZh0nhxnPkfSUjqloI4L4j8t9
rd99JzzQbPqFoSvsm4tg3NEd7LZUvkt6CxXs/J+hT1/dXgR0lFOaBOvSlDct8RDX
iLTmmHz61IBVqW28pxRatLr0V0Cq7UYOvyLmeWE/bpOVI0rirwCGwKpwNMuBJl+S
VPlUIo7ztdOEYBK7/1zdiwrJv70L7lqv9+KEH+PCU65y+yDaJxJUBmcwdqDk+CkN
tSrA1qtpwhWPz9QMBOERhDYFr7wyjkpcV6l++rIMjYvERKsfjApcaPHj6QYLwh2X
41SOvTHggx1cpekPOlMq147WeBpgKPBy6YOfEDMUNWuwOWJqHyr0LBgduNEsRqtn
4mwTFPUygRVod8m/WHt5zUu8EpVEg6FSLjStHDWYLhB4XmxSxnlg7P4ycxvR1YeE
DdM6To1st9WtcenZrbggIM3Vl198B9BrQ56INieB8NenbyeOHqaTAjHPP6Tt4nhe
h/54wXcWnqna4NdYlZ0sBn3QKND5zR6kiPUJhSRaS3Le7r7NsKVNJG49M59906ur
svwQMemaAbzT2F+7v067koZzTyYFx0U7nWZWkBloRqNCrqmlPMuIkcHXK+7uEn8E
81fdSB6xaTwlsIL9MCERGOxm5HpbN7o0M8YigPs8Q/JTEtzg2CuCVdOsGU9eqxYP
EhPe6E/1GZ/fpOei
-----END CERTIFICATE-----
